target datalayout = "e-m:e-p270:32:32-p271:32:32-p272:64:64-i64:64-i128:128-f80:128-n8:16:32:64-S128"
target triple = "x86_64-pc-linux-gnu"

%struct.PlannerInfo = type { i32, ptr, ptr, i32, ptr, ptr, ptr, ptr, i32, ptr, ptr, ptr, ptr, ptr, ptr, ptr, ptr, i32, ptr, ptr, ptr, ptr, ptr, i8, ptr, ptr, ptr, ptr, ptr, i32, ptr, ptr, ptr, ptr, ptr, ptr, ptr, i32, ptr, ptr, ptr, i32, ptr, ptr, ptr, ptr, ptr, ptr, [8 x ptr], [8 x ptr], ptr, ptr, ptr, ptr, ptr, ptr, ptr, double, double, double, i32, i8, i8, i8, i8, i8, i8, i8, i32, ptr, ptr, i32, i8, i8, i32, ptr, ptr, ptr, ptr, ptr, ptr, i8, ptr }
%struct.List = type { i32, i32, i32, ptr, [0 x %union.ListCell] }
%union.ListCell = type { ptr }
%struct.ForEachState = type { ptr, i32 }
%struct.GeqoPrivateData = type { ptr, %struct.pg_prng_state }
%struct.pg_prng_state = type { i64, i64 }
%struct.Clump = type { ptr, i32 }

; Function Attrs: inlinehint nounwind uwtable
define internal ptr @list_nth_cell(ptr noundef %0, i32 noundef %1) #3 {
  %3 = alloca ptr, align 8
  %4 = alloca i32, align 4
  store ptr %0, ptr %3, align 8
  store i32 %1, ptr %4, align 4
  %5 = load ptr, ptr %3, align 8
  %6 = getelementptr inbounds nuw %struct.List, ptr %5, i32 0, i32 3
  %7 = load ptr, ptr %6, align 8
  %8 = load i32, ptr %4, align 4
  %9 = sext i32 %8 to i64
  %10 = getelementptr inbounds %union.ListCell, ptr %7, i64 %9
  ret ptr %10
}

; Function Attrs: inlinehint nounwind uwtable
define internal i32 @list_length(ptr noundef %0) #3 {
  %2 = alloca ptr, align 8
  store ptr %0, ptr %2, align 8
  %3 = load ptr, ptr %2, align 8
  %4 = icmp ne ptr %3, null
  br i1 %4, label %5, label %9

5:                                                ; preds = %1
  %6 = load ptr, ptr %2, align 8
  %7 = getelementptr inbounds nuw %struct.List, ptr %6, i32 0, i32 1
  %8 = load i32, ptr %7, align 4
  br label %10

9:                                                ; preds = %1
  br label %10

10:                                               ; preds = %9, %5
  %11 = phi i32 [ %8, %5 ], [ 0, %9 ]
  ret i32 %11
}

; Function Attrs: inlinehint nounwind uwtable
define internal ptr @list_nth(ptr noundef %0, i32 noundef %1) #3 {
  %3 = alloca ptr, align 8
  %4 = alloca i32, align 4
  store ptr %0, ptr %3, align 8
  store i32 %1, ptr %4, align 4
  %5 = load ptr, ptr %3, align 8
  %6 = load i32, ptr %4, align 4
  %7 = call ptr @list_nth_cell(ptr noundef %5, i32 noundef %6)
  %8 = load ptr, ptr %7, align 8
  ret ptr %8
}

; Function Attrs: nounwind uwtable
define dso_local ptr @gimme_tree(ptr noundef %0, ptr noundef %1, i32 noundef %2) #0 {
  %4 = alloca ptr, align 8
  %5 = alloca ptr, align 8
  %6 = alloca ptr, align 8
  %7 = alloca i32, align 4
  %8 = alloca ptr, align 8
  %9 = alloca ptr, align 8
  %10 = alloca i32, align 4
  %11 = alloca i32, align 4
  %12 = alloca ptr, align 8
  %13 = alloca ptr, align 8
  %14 = alloca ptr, align 8
  %15 = alloca ptr, align 8
  %16 = alloca %struct.ForEachState, align 8
  %17 = alloca ptr, align 8
  %18 = alloca i32, align 4
  store ptr %0, ptr %5, align 8
  store ptr %1, ptr %6, align 8
  store i32 %2, ptr %7, align 4
  call void @llvm.lifetime.start.p0(i64 8, ptr %8) #5
  %19 = load ptr, ptr %5, align 8
  %20 = getelementptr inbounds nuw %struct.PlannerInfo, ptr %19, i32 0, i32 80
  %21 = load ptr, ptr %20, align 8
  store ptr %21, ptr %8, align 8
  call void @llvm.lifetime.start.p0(i64 8, ptr %9) #5
  call void @llvm.lifetime.start.p0(i64 4, ptr %10) #5
  store ptr null, ptr %9, align 8
  store i32 0, ptr %10, align 4
  br label %22

22:                                               ; preds = %49, %3
  %23 = load i32, ptr %10, align 4
  %24 = load i32, ptr %7, align 4
  %25 = icmp slt i32 %23, %24
  br i1 %25, label %26, label %52

26:                                               ; preds = %22
  call void @llvm.lifetime.start.p0(i64 4, ptr %11) #5
  call void @llvm.lifetime.start.p0(i64 8, ptr %12) #5
  call void @llvm.lifetime.start.p0(i64 8, ptr %13) #5
  %27 = load ptr, ptr %6, align 8
  %28 = load i32, ptr %10, align 4
  %29 = sext i32 %28 to i64
  %30 = getelementptr inbounds i32, ptr %27, i64 %29
  %31 = load i32, ptr %30, align 4
  store i32 %31, ptr %11, align 4
  %32 = load ptr, ptr %8, align 8
  %33 = getelementptr inbounds nuw %struct.GeqoPrivateData, ptr %32, i32 0, i32 0
  %34 = load ptr, ptr %33, align 8
  %35 = load i32, ptr %11, align 4
  %36 = sub i32 %35, 1
  %37 = call ptr @list_nth(ptr noundef %34, i32 noundef %36)
  store ptr %37, ptr %12, align 8
  %38 = call ptr @palloc(i64 noundef 16)
  store ptr %38, ptr %13, align 8
  %39 = load ptr, ptr %12, align 8
  %40 = load ptr, ptr %13, align 8
  %41 = getelementptr inbounds nuw %struct.Clump, ptr %40, i32 0, i32 0
  store ptr %39, ptr %41, align 8
  %42 = load ptr, ptr %13, align 8
  %43 = getelementptr inbounds nuw %struct.Clump, ptr %42, i32 0, i32 1
  store i32 1, ptr %43, align 8
  %44 = load ptr, ptr %5, align 8
  %45 = load ptr, ptr %9, align 8
  %46 = load ptr, ptr %13, align 8
  %47 = load i32, ptr %7, align 4
  %48 = call ptr @merge_clump(ptr noundef %44, ptr noundef %45, ptr noundef %46, i32 noundef %47, i1 noundef zeroext false)
  store ptr %48, ptr %9, align 8
  call void @llvm.lifetime.end.p0(i64 8, ptr %13) #5
  call void @llvm.lifetime.end.p0(i64 8, ptr %12) #5
  call void @llvm.lifetime.end.p0(i64 4, ptr %11) #5
  br label %49

49:                                               ; preds = %26
  %50 = load i32, ptr %10, align 4
  %51 = add i32 %50, 1
  store i32 %51, ptr %10, align 4
  br label %22, !llvm.loop !4

52:                                               ; preds = %22
  %53 = load ptr, ptr %9, align 8
  %54 = call i32 @list_length(ptr noundef %53)
  %55 = icmp sgt i32 %54, 1
  br i1 %55, label %56, label %101

56:                                               ; preds = %52
  call void @llvm.lifetime.start.p0(i64 8, ptr %14) #5
  call void @llvm.lifetime.start.p0(i64 8, ptr %15) #5
  store ptr null, ptr %14, align 8
  call void @llvm.lifetime.start.p0(i64 16, ptr %16) #5
  %57 = getelementptr inbounds nuw %struct.ForEachState, ptr %16, i32 0, i32 0
  %58 = load ptr, ptr %9, align 8
  store ptr %58, ptr %57, align 8
  %59 = getelementptr inbounds nuw %struct.ForEachState, ptr %16, i32 0, i32 1
  store i32 0, ptr %59, align 8
  %60 = getelementptr i8, ptr %16, i64 12
  call void @llvm.memset.p0.i64(ptr align 4 %60, i8 0, i64 4, i1 false)
  br label %61

61:                                               ; preds = %95, %56
  %62 = getelementptr inbounds nuw %struct.ForEachState, ptr %16, i32 0, i32 0
  %63 = load ptr, ptr %62, align 8
  %64 = icmp ne ptr %63, null
  br i1 %64, label %65, label %82

65:                                               ; preds = %61
  %66 = getelementptr inbounds nuw %struct.ForEachState, ptr %16, i32 0, i32 1
  %67 = load i32, ptr %66, align 8
  %68 = getelementptr inbounds nuw %struct.ForEachState, ptr %16, i32 0, i32 0
  %69 = load ptr, ptr %68, align 8
  %70 = getelementptr inbounds nuw %struct.List, ptr %69, i32 0, i32 1
  %71 = load i32, ptr %70, align 4
  %72 = icmp slt i32 %67, %71
  br i1 %72, label %73, label %82

73:                                               ; preds = %65
  %74 = getelementptr inbounds nuw %struct.ForEachState, ptr %16, i32 0, i32 0
  %75 = load ptr, ptr %74, align 8
  %76 = getelementptr inbounds nuw %struct.List, ptr %75, i32 0, i32 3
  %77 = load ptr, ptr %76, align 8
  %78 = getelementptr inbounds nuw %struct.ForEachState, ptr %16, i32 0, i32 1
  %79 = load i32, ptr %78, align 8
  %80 = sext i32 %79 to i64
  %81 = getelementptr inbounds %union.ListCell, ptr %77, i64 %80
  store ptr %81, ptr %15, align 8
  br label %83

82:                                               ; preds = %65, %61
  store ptr null, ptr %15, align 8
  br label %83

83:                                               ; preds = %82, %73
  %84 = phi i32 [ 1, %73 ], [ 0, %82 ]
  %85 = icmp ne i32 %84, 0
  br i1 %85, label %87, label %86

86:                                               ; preds = %83
  call void @llvm.lifetime.end.p0(i64 16, ptr %16) #5
  br label %99

87:                                               ; preds = %83
  call void @llvm.lifetime.start.p0(i64 8, ptr %17) #5
  %88 = load ptr, ptr %15, align 8
  %89 = load ptr, ptr %88, align 8
  store ptr %89, ptr %17, align 8
  %90 = load ptr, ptr %5, align 8
  %91 = load ptr, ptr %14, align 8
  %92 = load ptr, ptr %17, align 8
  %93 = load i32, ptr %7, align 4
  %94 = call ptr @merge_clump(ptr noundef %90, ptr noundef %91, ptr noundef %92, i32 noundef %93, i1 noundef zeroext true)
  store ptr %94, ptr %14, align 8
  call void @llvm.lifetime.end.p0(i64 8, ptr %17) #5
  br label %95

95:                                               ; preds = %87
  %96 = getelementptr inbounds nuw %struct.ForEachState, ptr %16, i32 0, i32 1
  %97 = load i32, ptr %96, align 8
  %98 = add i32 %97, 1
  store i32 %98, ptr %96, align 8
  br label %61, !llvm.loop !6

99:                                               ; preds = %86
  %100 = load ptr, ptr %14, align 8
  store ptr %100, ptr %9, align 8
  call void @llvm.lifetime.end.p0(i64 8, ptr %15) #5
  call void @llvm.lifetime.end.p0(i64 8, ptr %14) #5
  br label %101

101:                                              ; preds = %99, %52
  %102 = load ptr, ptr %9, align 8
  %103 = call i32 @list_length(ptr noundef %102)
  %104 = icmp ne i32 %103, 1
  br i1 %104, label %105, label %106

105:                                              ; preds = %101
  store ptr null, ptr %4, align 8
  store i32 1, ptr %18, align 4
  br label %112

106:                                              ; preds = %101
  %107 = load ptr, ptr %9, align 8
  %108 = call ptr @list_nth_cell(ptr noundef %107, i32 noundef 0)
  %109 = load ptr, ptr %108, align 8
  %110 = getelementptr inbounds nuw %struct.Clump, ptr %109, i32 0, i32 0
  %111 = load ptr, ptr %110, align 8
  store ptr %111, ptr %4, align 8
  store i32 1, ptr %18, align 4
  br label %112

112:                                              ; preds = %106, %105
  call void @llvm.lifetime.end.p0(i64 4, ptr %10) #5
  call void @llvm.lifetime.end.p0(i64 8, ptr %9) #5
  call void @llvm.lifetime.end.p0(i64 8, ptr %8) #5
  %113 = load ptr, ptr %4, align 8
  ret ptr %113
}